
_forktest:     file format elf32-i386


Disassembly of section .text:

00000000 <main>:
  printf(1, "fork test OK\n");
}

int
main(void)
{
   0:	55                   	push   %ebp
   1:	89 e5                	mov    %esp,%ebp
   3:	83 e4 f0             	and    $0xfffffff0,%esp
  forktest();
   6:	e8 35 00 00 00       	call   40 <forktest>
  exit();
   b:	e8 83 03 00 00       	call   393 <exit>

00000010 <printf>:
{
  10:	55                   	push   %ebp
  11:	89 e5                	mov    %esp,%ebp
  13:	53                   	push   %ebx
  14:	83 ec 10             	sub    $0x10,%esp
  17:	8b 5d 0c             	mov    0xc(%ebp),%ebx
  write(fd, s, strlen(s));
  1a:	53                   	push   %ebx
  1b:	e8 a0 01 00 00       	call   1c0 <strlen>
  20:	83 c4 0c             	add    $0xc,%esp
  23:	50                   	push   %eax
  24:	53                   	push   %ebx
  25:	ff 75 08             	pushl  0x8(%ebp)
  28:	e8 86 03 00 00       	call   3b3 <write>
}
  2d:	8b 5d fc             	mov    -0x4(%ebp),%ebx
  30:	83 c4 10             	add    $0x10,%esp
  33:	c9                   	leave  
  34:	c3                   	ret    
  35:	8d b4 26 00 00 00 00 	lea    0x0(%esi,%eiz,1),%esi
  3c:	8d 74 26 00          	lea    0x0(%esi,%eiz,1),%esi

00000040 <forktest>:
{
  40:	55                   	push   %ebp
  41:	89 e5                	mov    %esp,%ebp
  43:	53                   	push   %ebx
  for(n=0; n<N; n++){
  44:	31 db                	xor    %ebx,%ebx
{
  46:	83 ec 10             	sub    $0x10,%esp
  write(fd, s, strlen(s));
  49:	68 34 04 00 00       	push   $0x434
  4e:	e8 6d 01 00 00       	call   1c0 <strlen>
  53:	83 c4 0c             	add    $0xc,%esp
  56:	50                   	push   %eax
  57:	68 34 04 00 00       	push   $0x434
  5c:	6a 01                	push   $0x1
  5e:	e8 50 03 00 00       	call   3b3 <write>
  63:	83 c4 10             	add    $0x10,%esp
  66:	eb 19                	jmp    81 <forktest+0x41>
  68:	8d b4 26 00 00 00 00 	lea    0x0(%esi,%eiz,1),%esi
  6f:	90                   	nop
    if(pid == 0)
  70:	74 58                	je     ca <forktest+0x8a>
  for(n=0; n<N; n++){
  72:	83 c3 01             	add    $0x1,%ebx
  75:	81 fb e8 03 00 00    	cmp    $0x3e8,%ebx
  7b:	0f 84 92 00 00 00    	je     113 <forktest+0xd3>
    pid = fork();
  81:	e8 05 03 00 00       	call   38b <fork>
    if(pid < 0)
  86:	85 c0                	test   %eax,%eax
  88:	79 e6                	jns    70 <forktest+0x30>
  for(; n > 0; n--){
  8a:	85 db                	test   %ebx,%ebx
  8c:	74 10                	je     9e <forktest+0x5e>
  8e:	66 90                	xchg   %ax,%ax
    if(wait() < 0){
  90:	e8 06 03 00 00       	call   39b <wait>
  95:	85 c0                	test   %eax,%eax
  97:	78 36                	js     cf <forktest+0x8f>
  for(; n > 0; n--){
  99:	83 eb 01             	sub    $0x1,%ebx
  9c:	75 f2                	jne    90 <forktest+0x50>
  if(wait() != -1){
  9e:	e8 f8 02 00 00       	call   39b <wait>
  a3:	83 f8 ff             	cmp    $0xffffffff,%eax
  a6:	75 49                	jne    f1 <forktest+0xb1>
  write(fd, s, strlen(s));
  a8:	83 ec 0c             	sub    $0xc,%esp
  ab:	68 66 04 00 00       	push   $0x466
  b0:	e8 0b 01 00 00       	call   1c0 <strlen>
  b5:	83 c4 0c             	add    $0xc,%esp
  b8:	50                   	push   %eax
  b9:	68 66 04 00 00       	push   $0x466
  be:	6a 01                	push   $0x1
  c0:	e8 ee 02 00 00       	call   3b3 <write>
}
  c5:	8b 5d fc             	mov    -0x4(%ebp),%ebx
  c8:	c9                   	leave  
  c9:	c3                   	ret    
      exit();
  ca:	e8 c4 02 00 00       	call   393 <exit>
  write(fd, s, strlen(s));
  cf:	83 ec 0c             	sub    $0xc,%esp
  d2:	68 3f 04 00 00       	push   $0x43f
  d7:	e8 e4 00 00 00       	call   1c0 <strlen>
  dc:	83 c4 0c             	add    $0xc,%esp
  df:	50                   	push   %eax
  e0:	68 3f 04 00 00       	push   $0x43f
  e5:	6a 01                	push   $0x1
  e7:	e8 c7 02 00 00       	call   3b3 <write>
      exit();
  ec:	e8 a2 02 00 00       	call   393 <exit>
  write(fd, s, strlen(s));
  f1:	83 ec 0c             	sub    $0xc,%esp
  f4:	68 53 04 00 00       	push   $0x453
  f9:	e8 c2 00 00 00       	call   1c0 <strlen>
  fe:	83 c4 0c             	add    $0xc,%esp
 101:	50                   	push   %eax
 102:	68 53 04 00 00       	push   $0x453
 107:	6a 01                	push   $0x1
 109:	e8 a5 02 00 00       	call   3b3 <write>
    exit();
 10e:	e8 80 02 00 00       	call   393 <exit>
  write(fd, s, strlen(s));
 113:	83 ec 0c             	sub    $0xc,%esp
 116:	68 74 04 00 00       	push   $0x474
 11b:	e8 a0 00 00 00       	call   1c0 <strlen>
 120:	83 c4 0c             	add    $0xc,%esp
 123:	50                   	push   %eax
 124:	68 74 04 00 00       	push   $0x474
 129:	6a 01                	push   $0x1
 12b:	e8 83 02 00 00       	call   3b3 <write>
    exit();
 130:	e8 5e 02 00 00       	call   393 <exit>
 135:	66 90                	xchg   %ax,%ax
 137:	66 90                	xchg   %ax,%ax
 139:	66 90                	xchg   %ax,%ax
 13b:	66 90                	xchg   %ax,%ax
 13d:	66 90                	xchg   %ax,%ax
 13f:	90                   	nop

00000140 <strcpy>:
#include "user.h"
#include "x86.h"

char*
strcpy(char *s, char *t)
{
 140:	55                   	push   %ebp
  char *os;

  os = s;
  while((*s++ = *t++) != 0)
 141:	31 c0                	xor    %eax,%eax
{
 143:	89 e5                	mov    %esp,%ebp
 145:	53                   	push   %ebx
 146:	8b 4d 08             	mov    0x8(%ebp),%ecx
 149:	8b 5d 0c             	mov    0xc(%ebp),%ebx
 14c:	8d 74 26 00          	lea    0x0(%esi,%eiz,1),%esi
  while((*s++ = *t++) != 0)
 150:	0f b6 14 03          	movzbl (%ebx,%eax,1),%edx
 154:	88 14 01             	mov    %dl,(%ecx,%eax,1)
 157:	83 c0 01             	add    $0x1,%eax
 15a:	84 d2                	test   %dl,%dl
 15c:	75 f2                	jne    150 <strcpy+0x10>
    ;
  return os;
}
 15e:	89 c8                	mov    %ecx,%eax
 160:	5b                   	pop    %ebx
 161:	5d                   	pop    %ebp
 162:	c3                   	ret    
 163:	8d b4 26 00 00 00 00 	lea    0x0(%esi,%eiz,1),%esi
 16a:	8d b6 00 00 00 00    	lea    0x0(%esi),%esi

00000170 <strcmp>:

int
strcmp(const char *p, const char *q)
{
 170:	55                   	push   %ebp
 171:	89 e5                	mov    %esp,%ebp
 173:	53                   	push   %ebx
 174:	8b 4d 08             	mov    0x8(%ebp),%ecx
 177:	8b 55 0c             	mov    0xc(%ebp),%edx
  while(*p && *p == *q)
 17a:	0f b6 01             	movzbl (%ecx),%eax
 17d:	0f b6 1a             	movzbl (%edx),%ebx
 180:	84 c0                	test   %al,%al
 182:	75 1d                	jne    1a1 <strcmp+0x31>
 184:	eb 2a                	jmp    1b0 <strcmp+0x40>
 186:	8d b4 26 00 00 00 00 	lea    0x0(%esi,%eiz,1),%esi
 18d:	8d 76 00             	lea    0x0(%esi),%esi
 190:	0f b6 41 01          	movzbl 0x1(%ecx),%eax
    p++, q++;
 194:	83 c1 01             	add    $0x1,%ecx
 197:	83 c2 01             	add    $0x1,%edx
  while(*p && *p == *q)
 19a:	0f b6 1a             	movzbl (%edx),%ebx
 19d:	84 c0                	test   %al,%al
 19f:	74 0f                	je     1b0 <strcmp+0x40>
 1a1:	38 d8                	cmp    %bl,%al
 1a3:	74 eb                	je     190 <strcmp+0x20>
  return (uchar)*p - (uchar)*q;
 1a5:	29 d8                	sub    %ebx,%eax
}
 1a7:	5b                   	pop    %ebx
 1a8:	5d                   	pop    %ebp
 1a9:	c3                   	ret    
 1aa:	8d b6 00 00 00 00    	lea    0x0(%esi),%esi
 1b0:	31 c0                	xor    %eax,%eax
  return (uchar)*p - (uchar)*q;
 1b2:	29 d8                	sub    %ebx,%eax
}
 1b4:	5b                   	pop    %ebx
 1b5:	5d                   	pop    %ebp
 1b6:	c3                   	ret    
 1b7:	8d b4 26 00 00 00 00 	lea    0x0(%esi,%eiz,1),%esi
 1be:	66 90                	xchg   %ax,%ax

000001c0 <strlen>:

uint
strlen(char *s)
{
 1c0:	55                   	push   %ebp
 1c1:	89 e5                	mov    %esp,%ebp
 1c3:	8b 55 08             	mov    0x8(%ebp),%edx
  int n;

  for(n = 0; s[n]; n++)
 1c6:	80 3a 00             	cmpb   $0x0,(%edx)
 1c9:	74 15                	je     1e0 <strlen+0x20>
 1cb:	31 c0                	xor    %eax,%eax
 1cd:	8d 76 00             	lea    0x0(%esi),%esi
 1d0:	83 c0 01             	add    $0x1,%eax
 1d3:	80 3c 02 00          	cmpb   $0x0,(%edx,%eax,1)
 1d7:	89 c1                	mov    %eax,%ecx
 1d9:	75 f5                	jne    1d0 <strlen+0x10>
    ;
  return n;
}
 1db:	89 c8                	mov    %ecx,%eax
 1dd:	5d                   	pop    %ebp
 1de:	c3                   	ret    
 1df:	90                   	nop
  for(n = 0; s[n]; n++)
 1e0:	31 c9                	xor    %ecx,%ecx
}
 1e2:	5d                   	pop    %ebp
 1e3:	89 c8                	mov    %ecx,%eax
 1e5:	c3                   	ret    
 1e6:	8d b4 26 00 00 00 00 	lea    0x0(%esi,%eiz,1),%esi
 1ed:	8d 76 00             	lea    0x0(%esi),%esi

000001f0 <memset>:

void*
memset(void *dst, int c, uint n)
{
 1f0:	55                   	push   %ebp
 1f1:	89 e5                	mov    %esp,%ebp
 1f3:	57                   	push   %edi
 1f4:	8b 55 08             	mov    0x8(%ebp),%edx
}

static inline void
stosb(void *addr, int data, int cnt)
{
  asm volatile("cld; rep stosb" :
 1f7:	8b 4d 10             	mov    0x10(%ebp),%ecx
 1fa:	8b 45 0c             	mov    0xc(%ebp),%eax
 1fd:	89 d7                	mov    %edx,%edi
 1ff:	fc                   	cld    
 200:	f3 aa                	rep stos %al,%es:(%edi)
  stosb(dst, c, n);
  return dst;
}
 202:	89 d0                	mov    %edx,%eax
 204:	5f                   	pop    %edi
 205:	5d                   	pop    %ebp
 206:	c3                   	ret    
 207:	8d b4 26 00 00 00 00 	lea    0x0(%esi,%eiz,1),%esi
 20e:	66 90                	xchg   %ax,%ax

00000210 <strchr>:

char*
strchr(const char *s, char c)
{
 210:	55                   	push   %ebp
 211:	89 e5                	mov    %esp,%ebp
 213:	8b 45 08             	mov    0x8(%ebp),%eax
 216:	0f b6 4d 0c          	movzbl 0xc(%ebp),%ecx
  for(; *s; s++)
 21a:	0f b6 10             	movzbl (%eax),%edx
 21d:	84 d2                	test   %dl,%dl
 21f:	75 12                	jne    233 <strchr+0x23>
 221:	eb 1d                	jmp    240 <strchr+0x30>
 223:	8d 74 26 00          	lea    0x0(%esi,%eiz,1),%esi
 227:	90                   	nop
 228:	0f b6 50 01          	movzbl 0x1(%eax),%edx
 22c:	83 c0 01             	add    $0x1,%eax
 22f:	84 d2                	test   %dl,%dl
 231:	74 0d                	je     240 <strchr+0x30>
    if(*s == c)
 233:	38 d1                	cmp    %dl,%cl
 235:	75 f1                	jne    228 <strchr+0x18>
      return (char*)s;
  return 0;
}
 237:	5d                   	pop    %ebp
 238:	c3                   	ret    
 239:	8d b4 26 00 00 00 00 	lea    0x0(%esi,%eiz,1),%esi
  return 0;
 240:	31 c0                	xor    %eax,%eax
}
 242:	5d                   	pop    %ebp
 243:	c3                   	ret    
 244:	8d b4 26 00 00 00 00 	lea    0x0(%esi,%eiz,1),%esi
 24b:	8d 74 26 00          	lea    0x0(%esi,%eiz,1),%esi
 24f:	90                   	nop

00000250 <gets>:

char*
gets(char *buf, int max)
{
 250:	55                   	push   %ebp
 251:	89 e5                	mov    %esp,%ebp
 253:	57                   	push   %edi
 254:	56                   	push   %esi
  int i, cc;
  char c;

  for(i=0; i+1 < max; ){
 255:	31 f6                	xor    %esi,%esi
{
 257:	53                   	push   %ebx
 258:	89 f3                	mov    %esi,%ebx
 25a:	83 ec 1c             	sub    $0x1c,%esp
 25d:	8b 7d 08             	mov    0x8(%ebp),%edi
  for(i=0; i+1 < max; ){
 260:	eb 2f                	jmp    291 <gets+0x41>
 262:	8d b6 00 00 00 00    	lea    0x0(%esi),%esi
    cc = read(0, &c, 1);
 268:	83 ec 04             	sub    $0x4,%esp
 26b:	8d 45 e7             	lea    -0x19(%ebp),%eax
 26e:	6a 01                	push   $0x1
 270:	50                   	push   %eax
 271:	6a 00                	push   $0x0
 273:	e8 33 01 00 00       	call   3ab <read>
    if(cc < 1)
 278:	83 c4 10             	add    $0x10,%esp
 27b:	85 c0                	test   %eax,%eax
 27d:	7e 1c                	jle    29b <gets+0x4b>
      break;
    buf[i++] = c;
 27f:	0f b6 45 e7          	movzbl -0x19(%ebp),%eax
 283:	83 c7 01             	add    $0x1,%edi
 286:	88 47 ff             	mov    %al,-0x1(%edi)
    if(c == '\n' || c == '\r')
 289:	3c 0a                	cmp    $0xa,%al
 28b:	74 23                	je     2b0 <gets+0x60>
 28d:	3c 0d                	cmp    $0xd,%al
 28f:	74 1f                	je     2b0 <gets+0x60>
  for(i=0; i+1 < max; ){
 291:	83 c3 01             	add    $0x1,%ebx
 294:	89 fe                	mov    %edi,%esi
 296:	3b 5d 0c             	cmp    0xc(%ebp),%ebx
 299:	7c cd                	jl     268 <gets+0x18>
 29b:	89 f3                	mov    %esi,%ebx
      break;
  }
  buf[i] = '\0';
  return buf;
}
 29d:	8b 45 08             	mov    0x8(%ebp),%eax
  buf[i] = '\0';
 2a0:	c6 03 00             	movb   $0x0,(%ebx)
}
 2a3:	8d 65 f4             	lea    -0xc(%ebp),%esp
 2a6:	5b                   	pop    %ebx
 2a7:	5e                   	pop    %esi
 2a8:	5f                   	pop    %edi
 2a9:	5d                   	pop    %ebp
 2aa:	c3                   	ret    
 2ab:	8d 74 26 00          	lea    0x0(%esi,%eiz,1),%esi
 2af:	90                   	nop
 2b0:	8b 75 08             	mov    0x8(%ebp),%esi
 2b3:	8b 45 08             	mov    0x8(%ebp),%eax
 2b6:	01 de                	add    %ebx,%esi
 2b8:	89 f3                	mov    %esi,%ebx
  buf[i] = '\0';
 2ba:	c6 03 00             	movb   $0x0,(%ebx)
}
 2bd:	8d 65 f4             	lea    -0xc(%ebp),%esp
 2c0:	5b                   	pop    %ebx
 2c1:	5e                   	pop    %esi
 2c2:	5f                   	pop    %edi
 2c3:	5d                   	pop    %ebp
 2c4:	c3                   	ret    
 2c5:	8d b4 26 00 00 00 00 	lea    0x0(%esi,%eiz,1),%esi
 2cc:	8d 74 26 00          	lea    0x0(%esi,%eiz,1),%esi

000002d0 <stat>:

int
stat(char *n, struct stat *st)
{
 2d0:	55                   	push   %ebp
 2d1:	89 e5                	mov    %esp,%ebp
 2d3:	56                   	push   %esi
 2d4:	53                   	push   %ebx
  int fd;
  int r;

  fd = open(n, O_RDONLY);
 2d5:	83 ec 08             	sub    $0x8,%esp
 2d8:	6a 00                	push   $0x0
 2da:	ff 75 08             	pushl  0x8(%ebp)
 2dd:	e8 f1 00 00 00       	call   3d3 <open>
  if(fd < 0)
 2e2:	83 c4 10             	add    $0x10,%esp
 2e5:	85 c0                	test   %eax,%eax
 2e7:	78 27                	js     310 <stat+0x40>
    return -1;
  r = fstat(fd, st);
 2e9:	83 ec 08             	sub    $0x8,%esp
 2ec:	ff 75 0c             	pushl  0xc(%ebp)
 2ef:	89 c3                	mov    %eax,%ebx
 2f1:	50                   	push   %eax
 2f2:	e8 f4 00 00 00       	call   3eb <fstat>
  close(fd);
 2f7:	89 1c 24             	mov    %ebx,(%esp)
  r = fstat(fd, st);
 2fa:	89 c6                	mov    %eax,%esi
  close(fd);
 2fc:	e8 ba 00 00 00       	call   3bb <close>
  return r;
 301:	83 c4 10             	add    $0x10,%esp
}
 304:	8d 65 f8             	lea    -0x8(%ebp),%esp
 307:	89 f0                	mov    %esi,%eax
 309:	5b                   	pop    %ebx
 30a:	5e                   	pop    %esi
 30b:	5d                   	pop    %ebp
 30c:	c3                   	ret    
 30d:	8d 76 00             	lea    0x0(%esi),%esi
    return -1;
 310:	be ff ff ff ff       	mov    $0xffffffff,%esi
 315:	eb ed                	jmp    304 <stat+0x34>
 317:	8d b4 26 00 00 00 00 	lea    0x0(%esi,%eiz,1),%esi
 31e:	66 90                	xchg   %ax,%ax

00000320 <atoi>:

int
atoi(const char *s)
{
 320:	55                   	push   %ebp
 321:	89 e5                	mov    %esp,%ebp
 323:	53                   	push   %ebx
 324:	8b 55 08             	mov    0x8(%ebp),%edx
  int n;

  n = 0;
  while('0' <= *s && *s <= '9')
 327:	0f be 02             	movsbl (%edx),%eax
 32a:	8d 48 d0             	lea    -0x30(%eax),%ecx
 32d:	80 f9 09             	cmp    $0x9,%cl
  n = 0;
 330:	b9 00 00 00 00       	mov    $0x0,%ecx
  while('0' <= *s && *s <= '9')
 335:	77 1e                	ja     355 <atoi+0x35>
 337:	8d b4 26 00 00 00 00 	lea    0x0(%esi,%eiz,1),%esi
 33e:	66 90                	xchg   %ax,%ax
    n = n*10 + *s++ - '0';
 340:	83 c2 01             	add    $0x1,%edx
 343:	8d 0c 89             	lea    (%ecx,%ecx,4),%ecx
 346:	8d 4c 48 d0          	lea    -0x30(%eax,%ecx,2),%ecx
  while('0' <= *s && *s <= '9')
 34a:	0f be 02             	movsbl (%edx),%eax
 34d:	8d 58 d0             	lea    -0x30(%eax),%ebx
 350:	80 fb 09             	cmp    $0x9,%bl
 353:	76 eb                	jbe    340 <atoi+0x20>
  return n;
}
 355:	89 c8                	mov    %ecx,%eax
 357:	5b                   	pop    %ebx
 358:	5d                   	pop    %ebp
 359:	c3                   	ret    
 35a:	8d b6 00 00 00 00    	lea    0x0(%esi),%esi

00000360 <memmove>:

void*
memmove(void *vdst, void *vsrc, int n)
{
 360:	55                   	push   %ebp
 361:	89 e5                	mov    %esp,%ebp
 363:	57                   	push   %edi
 364:	8b 45 10             	mov    0x10(%ebp),%eax
 367:	8b 55 08             	mov    0x8(%ebp),%edx
 36a:	56                   	push   %esi
 36b:	8b 75 0c             	mov    0xc(%ebp),%esi
  char *dst, *src;

  dst = vdst;
  src = vsrc;
  while(n-- > 0)
 36e:	85 c0                	test   %eax,%eax
 370:	7e 13                	jle    385 <memmove+0x25>
 372:	01 d0                	add    %edx,%eax
  dst = vdst;
 374:	89 d7                	mov    %edx,%edi
 376:	8d b4 26 00 00 00 00 	lea    0x0(%esi,%eiz,1),%esi
 37d:	8d 76 00             	lea    0x0(%esi),%esi
    *dst++ = *src++;
 380:	a4                   	movsb  %ds:(%esi),%es:(%edi)
  while(n-- > 0)
 381:	39 f8                	cmp    %edi,%eax
 383:	75 fb                	jne    380 <memmove+0x20>
  return vdst;
}
 385:	5e                   	pop    %esi
 386:	89 d0                	mov    %edx,%eax
 388:	5f                   	pop    %edi
 389:	5d                   	pop    %ebp
 38a:	c3                   	ret    

0000038b <fork>:
  name: \
    movl $SYS_ ## name, %eax; \
    int $T_SYSCALL; \
    ret

SYSCALL(fork)
 38b:	b8 01 00 00 00       	mov    $0x1,%eax
 390:	cd 40                	int    $0x40
 392:	c3                   	ret    

00000393 <exit>:
SYSCALL(exit)
 393:	b8 02 00 00 00       	mov    $0x2,%eax
 398:	cd 40                	int    $0x40
 39a:	c3                   	ret    

0000039b <wait>:
SYSCALL(wait)
 39b:	b8 03 00 00 00       	mov    $0x3,%eax
 3a0:	cd 40                	int    $0x40
 3a2:	c3                   	ret    

000003a3 <pipe>:
SYSCALL(pipe)
 3a3:	b8 04 00 00 00       	mov    $0x4,%eax
 3a8:	cd 40                	int    $0x40
 3aa:	c3                   	ret    

000003ab <read>:
SYSCALL(read)
 3ab:	b8 05 00 00 00       	mov    $0x5,%eax
 3b0:	cd 40                	int    $0x40
 3b2:	c3                   	ret    

000003b3 <write>:
SYSCALL(write)
 3b3:	b8 10 00 00 00       	mov    $0x10,%eax
 3b8:	cd 40                	int    $0x40
 3ba:	c3                   	ret    

000003bb <close>:
SYSCALL(close)
 3bb:	b8 15 00 00 00       	mov    $0x15,%eax
 3c0:	cd 40                	int    $0x40
 3c2:	c3                   	ret    

000003c3 <kill>:
SYSCALL(kill)
 3c3:	b8 06 00 00 00       	mov    $0x6,%eax
 3c8:	cd 40                	int    $0x40
 3ca:	c3                   	ret    

000003cb <exec>:
SYSCALL(exec)
 3cb:	b8 07 00 00 00       	mov    $0x7,%eax
 3d0:	cd 40                	int    $0x40
 3d2:	c3                   	ret    

000003d3 <open>:
SYSCALL(open)
 3d3:	b8 0f 00 00 00       	mov    $0xf,%eax
 3d8:	cd 40                	int    $0x40
 3da:	c3                   	ret    

000003db <mknod>:
SYSCALL(mknod)
 3db:	b8 11 00 00 00       	mov    $0x11,%eax
 3e0:	cd 40                	int    $0x40
 3e2:	c3                   	ret    

000003e3 <unlink>:
SYSCALL(unlink)
 3e3:	b8 12 00 00 00       	mov    $0x12,%eax
 3e8:	cd 40                	int    $0x40
 3ea:	c3                   	ret    

000003eb <fstat>:
SYSCALL(fstat)
 3eb:	b8 08 00 00 00       	mov    $0x8,%eax
 3f0:	cd 40                	int    $0x40
 3f2:	c3                   	ret    

000003f3 <link>:
SYSCALL(link)
 3f3:	b8 13 00 00 00       	mov    $0x13,%eax
 3f8:	cd 40                	int    $0x40
 3fa:	c3                   	ret    

000003fb <mkdir>:
SYSCALL(mkdir)
 3fb:	b8 14 00 00 00       	mov    $0x14,%eax
 400:	cd 40                	int    $0x40
 402:	c3                   	ret    

00000403 <chdir>:
SYSCALL(chdir)
 403:	b8 09 00 00 00       	mov    $0x9,%eax
 408:	cd 40                	int    $0x40
 40a:	c3                   	ret    

0000040b <dup>:
SYSCALL(dup)
 40b:	b8 0a 00 00 00       	mov    $0xa,%eax
 410:	cd 40                	int    $0x40
 412:	c3                   	ret    

00000413 <getpid>:
SYSCALL(getpid)
 413:	b8 0b 00 00 00       	mov    $0xb,%eax
 418:	cd 40                	int    $0x40
 41a:	c3                   	ret    

0000041b <sbrk>:
SYSCALL(sbrk)
 41b:	b8 0c 00 00 00       	mov    $0xc,%eax
 420:	cd 40                	int    $0x40
 422:	c3                   	ret    

00000423 <sleep>:
SYSCALL(sleep)
 423:	b8 0d 00 00 00       	mov    $0xd,%eax
 428:	cd 40                	int    $0x40
 42a:	c3                   	ret    

0000042b <uptime>:
SYSCALL(uptime)
 42b:	b8 0e 00 00 00       	mov    $0xe,%eax
 430:	cd 40                	int    $0x40
 432:	c3                   	ret    
